(iclipeffectseditor
EffectValuesSaveData
p0
(dp1
S'info'
p2
(imltfilters
FilterInfo
p3
(dp4
S'xml'
p5
V<filter id="rgblut">\u000a        <name>Curves</name>\u000a        <group>Color</group>\u000a        <property args="editor=no_editor exptype=lut_table" name="R_table">LINEAR</property>\u000a        <property args="editor=no_editor exptype=lut_table" name="G_table">LINEAR</property>\u000a        <property args="editor=no_editor exptype=lut_table" name="B_table">LINEAR</property>\u000a        <propertynonmlt args="editor=no_editor" name="r_curve">0/0;255/255</propertynonmlt>\u000a        <propertynonmlt args="editor=no_editor" name="g_curve">0/0;255/255</propertynonmlt>\u000a        <propertynonmlt args="editor=no_editor" name="b_curve">0/0;255/255</propertynonmlt>\u000a        <propertynonmlt args="editor=no_editor" name="value_curve">0/0;255/255</propertynonmlt>\u000a        <extraeditor name="crcurves"/>\u000a    </filter>
p6
sS'non_mlt_properties'
p7
(lp8
(Vr_curve
p9
V0/0;255/255
p10
I2
tp11
a(Vg_curve
p12
V0/0;255/255
p13
I2
tp14
a(Vb_curve
p15
V0/0;255/255
p16
I2
tp17
a(Vvalue_curve
p18
V0/0;255/255
p19
I2
tp20
asS'group'
p21
VColor
p22
sS'name'
p23
VCurves
p24
sS'property_args'
p25
(dp26
VG_table
p27
Veditor=no_editor exptype=lut_table
p28
sg18
Veditor=no_editor
p29
sg15
Veditor=no_editor
p30
sVR_table
p31
Veditor=no_editor exptype=lut_table
p32
sg9
Veditor=no_editor
p33
sVB_table
p34
Veditor=no_editor exptype=lut_table
p35
sg12
Veditor=no_editor
p36
ssS'mlt_min_version'
p37
S''
p38
sS'properties'
p39
(lp40
(g31
VLINEAR
p41
I2
tp42
a(g27
VLINEAR
p43
I2
tp44
a(g34
VLINEAR
p45
I2
tp46
asS'extra_editors'
p47
(lp48
Vcrcurves
p49
asS'multipart_filter'
p50
I00
sS'mlt_service_id'
p51
Vrgblut
p52
sS'mlt_drop_version'
p53
g38
sbsg50
I00
sg39
(lp54
(S'R_table'
p55
S'0;4;6;9;11;14;17;19;22;25;27;30;33;36;38;41;44;46;49;52;54;57;60;62;65;68;70;73;75;78;80;83;85;87;90;92;95;97;99;101;104;106;108;110;112;114;116;118;119;121;123;124;126;127;129;130;131;132;133;133;134;134;134;134;134;133;132;131;130;129;127;126;124;122;120;117;115;113;110;107;105;102;99;97;94;92;89;87;85;82;80;78;77;75;74;72;71;70;70;69;69;68;68;68;69;69;70;71;72;73;74;75;76;78;79;81;82;84;86;87;89;91;93;95;97;99;101;103;105;107;109;111;114;116;118;120;122;125;127;129;131;134;136;138;140;143;145;147;149;151;154;156;158;160;162;164;166;168;170;172;174;175;177;179;180;182;183;185;186;187;188;188;189;189;189;189;189;189;188;187;186;185;183;181;179;177;174;171;168;166;163;160;157;154;152;149;147;145;144;143;142;141;141;141;141;142;142;143;145;146;147;149;151;152;154;156;158;160;162;164;166;168;171;173;175;178;180;182;185;187;189;192;194;197;199;202;204;207;210;212;215;218;220;223;226;228;231;234;237;239;242;245;248;251;254;255'
p56
I2
tp57
a(S'G_table'
p58
S'0;4;6;9;11;14;17;19;22;25;27;30;33;36;38;41;44;46;49;52;54;57;60;62;65;68;70;73;75;78;80;83;85;87;90;92;95;97;99;101;104;106;108;110;112;114;116;118;119;121;123;124;126;127;129;130;131;132;133;133;134;134;134;134;134;133;132;131;130;129;127;126;124;122;120;117;115;113;110;107;105;102;99;97;94;92;89;87;85;82;80;78;77;75;74;72;71;70;70;69;69;68;68;68;69;69;70;71;72;73;74;75;76;78;79;81;82;84;86;87;89;91;93;95;97;99;101;103;105;107;109;111;114;116;118;120;122;125;127;129;131;134;136;138;140;143;145;147;149;151;154;156;158;160;162;164;166;168;170;172;174;175;177;179;180;182;183;185;186;187;188;188;189;189;189;189;189;189;188;187;186;185;183;181;179;177;174;171;168;166;163;160;157;154;152;149;147;145;144;143;142;141;141;141;141;142;142;143;145;146;147;149;151;152;154;156;158;160;162;164;166;168;171;173;175;178;180;182;185;187;189;192;194;197;199;202;204;207;210;212;215;218;220;223;226;228;231;234;237;239;242;245;248;251;254;255'
p59
I2
tp60
a(S'B_table'
p61
S'0;4;6;9;11;14;17;19;22;25;27;30;33;36;38;41;44;46;49;52;54;57;60;62;65;68;70;73;75;78;80;83;85;87;90;92;95;97;99;101;104;106;108;110;112;114;116;118;119;121;123;124;126;127;129;130;131;132;133;133;134;134;134;134;134;133;132;131;130;129;127;126;124;122;120;117;115;113;110;107;105;102;99;97;94;92;89;87;85;82;80;78;77;75;74;72;71;70;70;69;69;68;68;68;69;69;70;71;72;73;74;75;76;78;79;81;82;84;86;87;89;91;93;95;97;99;101;103;105;107;109;111;114;116;118;120;122;125;127;129;131;134;136;138;140;143;145;147;149;151;154;156;158;160;162;164;166;168;170;172;174;175;177;179;180;182;183;185;186;187;188;188;189;189;189;189;189;189;188;187;186;185;183;181;179;177;174;171;168;166;163;160;157;154;152;149;147;145;144;143;142;141;141;141;141;142;142;143;145;146;147;149;151;152;154;156;158;160;162;164;166;168;171;173;175;178;180;182;185;187;189;192;194;197;199;202;204;207;210;212;215;218;220;223;226;228;231;234;237;239;242;245;248;251;254;255'
p62
I2
tp63
asS'value'
p64
Nsg7
(lp65
g11
ag14
ag17
a(S'value_curve'
p66
S'0/0;59/133;105/69;171/188;208/138;255/255'
p67
I2
tp68
asb.